; Function Attrs: nounwind uwtable
define hidden i32 @BIO_flush(ptr noundef %0) local_unnamed_addr #0 {
  %2 = icmp eq ptr %0, null
  br i1 %2, label %BIO_ctrl.exit, label %3

3:                                                ; preds = %1
  %4 = load ptr, ptr %0, align 8, !tbaa !6
  %5 = icmp eq ptr %4, null
  br i1 %5, label %10, label %6

6:                                                ; preds = %3
  %7 = getelementptr inbounds nuw i8, ptr %4, i64 48
  %8 = load ptr, ptr %7, align 8, !tbaa !28
  %9 = icmp eq ptr %8, null
  br i1 %9, label %10, label %11

10:                                               ; preds = %6, %3
  tail call void @ERR_put_error(i32 noundef 17, i32 noundef 0, i32 noundef 115, ptr noundef nonnull @.str, i32 noundef 220) #18
  br label %BIO_ctrl.exit

11:                                               ; preds = %6
  %12 = getelementptr inbounds nuw i8, ptr %0, i64 8
  %13 = load ptr, ptr %12, align 8, !tbaa !20
  %.not.i = icmp eq ptr %13, null
  br i1 %.not.i, label %17, label %14

14:                                               ; preds = %11
  %15 = tail call i64 %13(ptr noundef nonnull %0, i32 noundef 6, ptr noundef null, i32 noundef 11, i64 noundef 0, i64 noundef 1) #18
  %16 = icmp slt i64 %15, 1
  br i1 %16, label %BIO_ctrl.exit, label %._crit_edge.i

._crit_edge.i:                                    ; preds = %14
  %.pre.i = load ptr, ptr %0, align 8, !tbaa !6
  %.phi.trans.insert.i = getelementptr inbounds nuw i8, ptr %.pre.i, i64 48
  %.pre31.i = load ptr, ptr %.phi.trans.insert.i, align 8, !tbaa !28
  br label %17

17:                                               ; preds = %._crit_edge.i, %11
  %18 = phi ptr [ %.pre31.i, %._crit_edge.i ], [ %8, %11 ]
  %19 = tail call i64 %18(ptr noundef nonnull %0, i32 noundef 11, i64 noundef 0, ptr noundef null) #18
  %20 = load ptr, ptr %12, align 8, !tbaa !20
  %.not30.i = icmp eq ptr %20, null
  br i1 %.not30.i, label %BIO_ctrl.exit, label %21

21:                                               ; preds = %17
  %22 = tail call i64 %20(ptr noundef nonnull %0, i32 noundef 134, ptr noundef null, i32 noundef 11, i64 noundef 0, i64 noundef %19) #18
  br label %BIO_ctrl.exit

BIO_ctrl.exit:                                    ; preds = %1, %10, %14, %17, %21
  %.024.i = phi i64 [ -2, %10 ], [ 0, %1 ], [ %15, %14 ], [ %22, %21 ], [ %19, %17 ]
  %23 = trunc i64 %.024.i to i32
  ret i32 %23
}